target datalayout = "e-m:e-p270:32:32-p271:32:32-p272:64:64-i64:64-i128:128-f80:128-n8:16:32:64-S128"
target triple = "x86_64-unknown-linux-gnu"

%struct.E1000State_st = type { %struct.PCIDevice, ptr, %struct.NICConf, %struct.MemoryRegion, %struct.MemoryRegion, [32768 x i32], [32 x i16], [64 x i16], i32, i32, %struct.e1000_tx, %struct.anon, ptr, ptr, i8, i8, i32, ptr, i32, i8, i8, %struct.e1000x_txd_props }
%struct.PCIDevice = type { %struct.DeviceState, i8, i8, ptr, ptr, ptr, ptr, ptr, i32, %struct.PCIReqIDCache, [64 x i8], [7 x %struct.PCIIORegion], %struct.AddressSpace, %struct.MemoryRegion, %struct.MemoryRegion, ptr, ptr, [3 x ptr], i8, i8, i32, i8, i32, ptr, ptr, ptr, ptr, ptr, ptr, %struct.MemoryRegion, %struct.MemoryRegion, %struct.MemoryRegion, ptr, i8, i32, i8, %struct.PCIExpressDevice, ptr, ptr, i32, i8, %struct.MemoryRegion, i32, ptr, ptr, ptr, ptr, ptr, i32 }
%struct.DeviceState = type { %struct.Object, ptr, ptr, i8, i8, i64, ptr, i32, i8, ptr, %struct.NamedGPIOListHead, %struct.NamedClockListHead, %struct.BusStateHead, i32, i32, i32, %struct.ResettableState, ptr, %struct.MemReentrancyGuard }
%struct.Object = type { ptr, ptr, ptr, i32, ptr }
%struct.NamedGPIOListHead = type { ptr }
%struct.NamedClockListHead = type { ptr }
%struct.BusStateHead = type { ptr }
%struct.ResettableState = type { i32, i8, i8 }
%struct.MemReentrancyGuard = type { i8 }
%struct.PCIReqIDCache = type { ptr, i32 }
%struct.PCIIORegion = type { i64, i64, i8, ptr, ptr }
%struct.AddressSpace = type { %struct.rcu_head, ptr, ptr, ptr, i32, i32, ptr, %union.anon, %union.anon.0 }
%struct.rcu_head = type { ptr, ptr }
%union.anon = type { %struct.QTailQLink }
%struct.QTailQLink = type { ptr, ptr }
%union.anon.0 = type { %struct.QTailQLink }
%struct.PCIExpressDevice = type { i8, i8, i8, i16, %struct.PCIEAERLog, i16, i16, i16, %struct.PCIESriovPF, %struct.PCIESriovVF }
%struct.PCIEAERLog = type { i16, i16, ptr }
%struct.PCIESriovPF = type { i16, [7 x i8], ptr, ptr }
%struct.PCIESriovVF = type { ptr, i16 }
%struct.NICConf = type { %struct.MACAddr, %struct.NICPeers, i32 }
%struct.MACAddr = type { [6 x i8] }
%struct.NICPeers = type { [1024 x ptr], i32 }
%struct.MemoryRegion = type { %struct.Object, i8, i8, i8, i8, i8, i8, i8, i8, i8, i8, ptr, ptr, ptr, ptr, ptr, ptr, i32, i128, i64, ptr, i64, i8, i8, i8, i8, i8, ptr, i64, i32, %union.anon.1, %union.anon.2, %union.anon.3, ptr, i32, ptr, ptr, i8 }
%union.anon.1 = type { %struct.QTailQLink }
%union.anon.2 = type { %struct.QTailQLink }
%union.anon.3 = type { %struct.QTailQLink }
%struct.e1000_tx = type { [256 x i8], [4 x i8], [4 x i8], [65536 x i8], i16, i8, i8, i8, %struct.e1000x_txd_props, %struct.e1000x_txd_props, i16, i8 }
%struct.anon = type { i32, i16, i16, i16, i32 }
%struct.e1000x_txd_props = type { i8, i8, i16, i8, i8, i16, i32, i8, i16, i8, i8, i8 }
%struct.timeval = type { i64, i64 }

@trace_events_enabled_count = external global i32, align 4
@_TRACE_E1000_RECEIVER_OVERRUN_DSTATE = external global i16, align 2
@message_with_timestamp = external global i8, align 1
@.str.20 = private unnamed_addr constant [99 x i8] c"%d@%zu.%06zu:e1000_receiver_overrun Receiver overrun: dropped packet of %zu bytes, RDH=%u, RDT=%u\0A\00", align 1
@.str.21 = private unnamed_addr constant [86 x i8] c"e1000_receiver_overrun Receiver overrun: dropped packet of %zu bytes, RDH=%u, RDT=%u\0A\00", align 1
@qemu_loglevel = external global i32, align 4

; Function Attrs: nounwind sspstrong uwtable
define internal zeroext i1 @qemu_loglevel_mask(i32 noundef %mask) #0 {
entry:
  %mask.addr = alloca i32, align 4
  store i32 %mask, ptr %mask.addr, align 4
  %0 = load i32, ptr @qemu_loglevel, align 4
  %1 = load i32, ptr %mask.addr, align 4
  %and = and i32 %0, %1
  %cmp = icmp ne i32 %and, 0
  ret i1 %cmp
}

; Function Attrs: nounwind sspstrong uwtable
define internal void @_nocheck__trace_e1000_receiver_overrun(i64 noundef %s, i32 noundef %rdh, i32 noundef %rdt) #0 {
entry:
  %s.addr = alloca i64, align 8
  %rdh.addr = alloca i32, align 4
  %rdt.addr = alloca i32, align 4
  %_now = alloca %struct.timeval, align 8
  store i64 %s, ptr %s.addr, align 8
  store i32 %rdh, ptr %rdh.addr, align 4
  store i32 %rdt, ptr %rdt.addr, align 4
  %0 = load i32, ptr @trace_events_enabled_count, align 4
  %tobool = icmp ne i32 %0, 0
  %lnot = xor i1 %tobool, true
  %lnot1 = xor i1 %lnot, true
  %lnot.ext = zext i1 %lnot1 to i32
  %conv = sext i32 %lnot.ext to i64
  %tobool2 = icmp ne i64 %conv, 0
  br i1 %tobool2, label %land.lhs.true, label %if.end11

land.lhs.true:                                    ; preds = %entry
  %1 = load i16, ptr @_TRACE_E1000_RECEIVER_OVERRUN_DSTATE, align 2
  %conv3 = zext i16 %1 to i32
  %tobool4 = icmp ne i32 %conv3, 0
  br i1 %tobool4, label %land.lhs.true5, label %if.end11

land.lhs.true5:                                   ; preds = %land.lhs.true
  %call = call zeroext i1 @qemu_loglevel_mask(i32 noundef 32768)
  br i1 %call, label %if.then, label %if.end11

if.then:                                          ; preds = %land.lhs.true5
  %2 = load i8, ptr @message_with_timestamp, align 1
  %tobool7 = trunc i8 %2 to i1
  br i1 %tobool7, label %if.then8, label %if.else

if.then8:                                         ; preds = %if.then
  %call9 = call i32 @gettimeofday(ptr noundef %_now, ptr noundef null) #8
  %call10 = call i32 @qemu_get_thread_id()
  %tv_sec = getelementptr inbounds %struct.timeval, ptr %_now, i32 0, i32 0
  %3 = load i64, ptr %tv_sec, align 8
  %tv_usec = getelementptr inbounds %struct.timeval, ptr %_now, i32 0, i32 1
  %4 = load i64, ptr %tv_usec, align 8
  %5 = load i64, ptr %s.addr, align 8
  %6 = load i32, ptr %rdh.addr, align 4
  %7 = load i32, ptr %rdt.addr, align 4
  call void (ptr, ...) @qemu_log(ptr noundef @.str.20, i32 noundef %call10, i64 noundef %3, i64 noundef %4, i64 noundef %5, i32 noundef %6, i32 noundef %7)
  br label %if.end

if.else:                                          ; preds = %if.then
  %8 = load i64, ptr %s.addr, align 8
  %9 = load i32, ptr %rdh.addr, align 4
  %10 = load i32, ptr %rdt.addr, align 4
  call void (ptr, ...) @qemu_log(ptr noundef @.str.21, i64 noundef %8, i32 noundef %9, i32 noundef %10)
  br label %if.end

if.end:                                           ; preds = %if.else, %if.then8
  br label %if.end11

if.end11:                                         ; preds = %if.end, %land.lhs.true5, %land.lhs.true, %entry
  ret void
}

; Function Attrs: nounwind sspstrong uwtable
define internal void @set_ics(ptr noundef %s, i32 noundef %index, i32 noundef %val) #0 {
entry:
  %s.addr = alloca ptr, align 8
  %index.addr = alloca i32, align 4
  %val.addr = alloca i32, align 4
  store ptr %s, ptr %s.addr, align 8
  store i32 %index, ptr %index.addr, align 4
  store i32 %val, ptr %val.addr, align 4
  br label %do.body

do.body:                                          ; preds = %entry
  br label %do.end

do.end:                                           ; preds = %do.body
  %0 = load ptr, ptr %s.addr, align 8
  %1 = load i32, ptr %val.addr, align 4
  %2 = load ptr, ptr %s.addr, align 8
  %mac_reg = getelementptr inbounds %struct.E1000State_st, ptr %2, i32 0, i32 5
  %arrayidx = getelementptr [32768 x i32], ptr %mac_reg, i64 0, i64 48
  %3 = load i32, ptr %arrayidx, align 16
  %or = or i32 %1, %3
  call void @set_interrupt_cause(ptr noundef %0, i32 noundef 0, i32 noundef %or)
  ret void
}

; Function Attrs: nounwind sspstrong uwtable
define internal void @e1000x_inc_reg_if_not_full(ptr noundef %mac, i32 noundef %index) #0 {
entry:
  %mac.addr = alloca ptr, align 8
  %index.addr = alloca i32, align 4
  store ptr %mac, ptr %mac.addr, align 8
  store i32 %index, ptr %index.addr, align 4
  %0 = load ptr, ptr %mac.addr, align 8
  %1 = load i32, ptr %index.addr, align 4
  %idxprom = sext i32 %1 to i64
  %arrayidx = getelementptr i32, ptr %0, i64 %idxprom
  %2 = load i32, ptr %arrayidx, align 4
  %cmp = icmp ne i32 %2, -1
  br i1 %cmp, label %if.then, label %if.end

if.then:                                          ; preds = %entry
  %3 = load ptr, ptr %mac.addr, align 8
  %4 = load i32, ptr %index.addr, align 4
  %idxprom1 = sext i32 %4 to i64
  %arrayidx2 = getelementptr i32, ptr %3, i64 %idxprom1
  %5 = load i32, ptr %arrayidx2, align 4
  %inc = add i32 %5, 1
  store i32 %inc, ptr %arrayidx2, align 4
  br label %if.end

if.end:                                           ; preds = %if.then, %entry
  ret void
}

; Function Attrs: nounwind sspstrong uwtable
define internal void @trace_e1000_receiver_overrun(i64 noundef %s, i32 noundef %rdh, i32 noundef %rdt) #0 {
entry:
  %s.addr = alloca i64, align 8
  %rdh.addr = alloca i32, align 4
  %rdt.addr = alloca i32, align 4
  store i64 %s, ptr %s.addr, align 8
  store i32 %rdh, ptr %rdh.addr, align 4
  store i32 %rdt, ptr %rdt.addr, align 4
  %0 = load i64, ptr %s.addr, align 8
  %1 = load i32, ptr %rdh.addr, align 4
  %2 = load i32, ptr %rdt.addr, align 4
  call void @_nocheck__trace_e1000_receiver_overrun(i64 noundef %0, i32 noundef %1, i32 noundef %2)
  ret void
}

; Function Attrs: nounwind sspstrong uwtable
define internal void @e1000_receiver_overrun(ptr noundef %s, i64 noundef %size) #0 {
entry:
  %s.addr = alloca ptr, align 8
  %size.addr = alloca i64, align 8
  store ptr %s, ptr %s.addr, align 8
  store i64 %size, ptr %size.addr, align 8
  %0 = load i64, ptr %size.addr, align 8
  %1 = load ptr, ptr %s.addr, align 8
  %mac_reg = getelementptr inbounds %struct.E1000State_st, ptr %1, i32 0, i32 5
  %arrayidx = getelementptr [32768 x i32], ptr %mac_reg, i64 0, i64 2564
  %2 = load i32, ptr %arrayidx, align 16
  %3 = load ptr, ptr %s.addr, align 8
  %mac_reg1 = getelementptr inbounds %struct.E1000State_st, ptr %3, i32 0, i32 5
  %arrayidx2 = getelementptr [32768 x i32], ptr %mac_reg1, i64 0, i64 2566
  %4 = load i32, ptr %arrayidx2, align 8
  call void @trace_e1000_receiver_overrun(i64 noundef %0, i32 noundef %2, i32 noundef %4)
  %5 = load ptr, ptr %s.addr, align 8
  %mac_reg3 = getelementptr inbounds %struct.E1000State_st, ptr %5, i32 0, i32 5
  %arraydecay = getelementptr inbounds [32768 x i32], ptr %mac_reg3, i64 0, i64 0
  call void @e1000x_inc_reg_if_not_full(ptr noundef %arraydecay, i32 noundef 4136)
  %6 = load ptr, ptr %s.addr, align 8
  %mac_reg4 = getelementptr inbounds %struct.E1000State_st, ptr %6, i32 0, i32 5
  %arraydecay5 = getelementptr inbounds [32768 x i32], ptr %mac_reg4, i64 0, i64 0
  call void @e1000x_inc_reg_if_not_full(ptr noundef %arraydecay5, i32 noundef 4100)
  %7 = load ptr, ptr %s.addr, align 8
  call void @set_ics(ptr noundef %7, i32 noundef 0, i32 noundef 64)
  ret void
}