; Function Attrs: nounwind sspstrong uwtable
define internal fastcc void @e1000_receiver_overrun(ptr noundef %s, i64 noundef %size) unnamed_addr #0 {
entry:
  %_now.i.i = alloca %struct.timeval, align 8
  %arrayidx = getelementptr i8, ptr %s, i64 21632
  %0 = load i32, ptr %arrayidx, align 16
  %arrayidx2 = getelementptr i8, ptr %s, i64 21640
  %1 = load i32, ptr %arrayidx2, align 8
  call void @llvm.lifetime.start.p0(i64 16, ptr nonnull %_now.i.i)
  %2 = load i32, ptr @trace_events_enabled_count, align 4
  %tobool.i.i = icmp ne i32 %2, 0
  %3 = load i16, ptr @_TRACE_E1000_RECEIVER_OVERRUN_DSTATE, align 2
  %tobool4.i.i = icmp ne i16 %3, 0
  %or.cond.i.i = select i1 %tobool.i.i, i1 %tobool4.i.i, i1 false
  br i1 %or.cond.i.i, label %land.lhs.true5.i.i, label %trace_e1000_receiver_overrun.exit

land.lhs.true5.i.i:                               ; preds = %entry
  %4 = load i32, ptr @qemu_loglevel, align 4
  %and.i.i.i = and i32 %4, 32768
  %cmp.i.not.i.i = icmp eq i32 %and.i.i.i, 0
  br i1 %cmp.i.not.i.i, label %trace_e1000_receiver_overrun.exit, label %if.then.i.i

if.then.i.i:                                      ; preds = %land.lhs.true5.i.i
  %5 = load i8, ptr @message_with_timestamp, align 1
  %tobool7.i.i = trunc i8 %5 to i1
  br i1 %tobool7.i.i, label %if.then8.i.i, label %if.else.i.i

if.then8.i.i:                                     ; preds = %if.then.i.i
  %call9.i.i = call i32 @gettimeofday(ptr noundef nonnull %_now.i.i, ptr noundef null) #13
  %call10.i.i = tail call i32 @qemu_get_thread_id() #13
  %6 = load i64, ptr %_now.i.i, align 8
  %tv_usec.i.i = getelementptr inbounds nuw i8, ptr %_now.i.i, i64 8
  %7 = load i64, ptr %tv_usec.i.i, align 8
  tail call void (ptr, ...) @qemu_log(ptr noundef nonnull @.str.20, i32 noundef %call10.i.i, i64 noundef %6, i64 noundef %7, i64 noundef %size, i32 noundef %0, i32 noundef %1) #13
  br label %trace_e1000_receiver_overrun.exit

if.else.i.i:                                      ; preds = %if.then.i.i
  tail call void (ptr, ...) @qemu_log(ptr noundef nonnull @.str.21, i64 noundef %size, i32 noundef %0, i32 noundef %1) #13
  br label %trace_e1000_receiver_overrun.exit

trace_e1000_receiver_overrun.exit:                ; preds = %entry, %land.lhs.true5.i.i, %if.then8.i.i, %if.else.i.i
  call void @llvm.lifetime.end.p0(i64 16, ptr nonnull %_now.i.i)
  %arrayidx.i = getelementptr i8, ptr %s, i64 27920
  %8 = load i32, ptr %arrayidx.i, align 4
  %cmp.not.i = icmp eq i32 %8, -1
  br i1 %cmp.not.i, label %e1000x_inc_reg_if_not_full.exit, label %if.then.i

if.then.i:                                        ; preds = %trace_e1000_receiver_overrun.exit
  %inc.i = add nuw i32 %8, 1
  store i32 %inc.i, ptr %arrayidx.i, align 4
  br label %e1000x_inc_reg_if_not_full.exit

e1000x_inc_reg_if_not_full.exit:                  ; preds = %trace_e1000_receiver_overrun.exit, %if.then.i
  %arrayidx.i5 = getelementptr i8, ptr %s, i64 27776
  %9 = load i32, ptr %arrayidx.i5, align 4
  %cmp.not.i6 = icmp eq i32 %9, -1
  br i1 %cmp.not.i6, label %e1000x_inc_reg_if_not_full.exit9, label %if.then.i7

if.then.i7:                                       ; preds = %e1000x_inc_reg_if_not_full.exit
  %inc.i8 = add nuw i32 %9, 1
  store i32 %inc.i8, ptr %arrayidx.i5, align 4
  br label %e1000x_inc_reg_if_not_full.exit9

e1000x_inc_reg_if_not_full.exit9:                 ; preds = %e1000x_inc_reg_if_not_full.exit, %if.then.i7
  %arrayidx.i10 = getelementptr i8, ptr %s, i64 11568
  %10 = load i32, ptr %arrayidx.i10, align 16
  %or.i = or i32 %10, 64
  tail call fastcc void @set_interrupt_cause(ptr noundef nonnull %s, i32 noundef %or.i)
  ret void
}